target datalayout = "e-m:e-p270:32:32-p271:32:32-p272:64:64-i64:64-i128:128-f80:128-n8:16:32:64-S128"
target triple = "x86_64-pc-linux-gnu"

%"class.std::__shared_count" = type { ptr }
%"class.OpenColorIO_v2_5dev::Baker" = type { ptr }
%"class.std::__cxx11::basic_string" = type { %"struct.std::__cxx11::basic_string<char>::_Alloc_hider", i64, %union.anon }
%"struct.std::__cxx11::basic_string<char>::_Alloc_hider" = type { ptr }
%union.anon = type { i64, [8 x i8] }
%"class.OpenColorIO_v2_5dev::Baker::Impl" = type { %"class.std::shared_ptr.0", %"class.std::__cxx11::basic_string", %"class.OpenColorIO_v2_5dev::FormatMetadataImpl", %"class.std::__cxx11::basic_string", %"class.std::__cxx11::basic_string", %"class.std::__cxx11::basic_string", %"class.std::__cxx11::basic_string", %"class.std::__cxx11::basic_string", %"class.std::__cxx11::basic_string", i32, i32 }
%"class.std::shared_ptr.0" = type { %"class.std::__shared_ptr.1" }
%"class.std::__shared_ptr.1" = type { ptr, %"class.std::__shared_count" }
%"class.OpenColorIO_v2_5dev::FormatMetadataImpl" = type { %"class.OpenColorIO_v2_5dev::FormatMetadata", %"class.std::__cxx11::basic_string", %"class.std::__cxx11::basic_string", %"class.std::vector", %"class.std::vector.6" }
%"class.OpenColorIO_v2_5dev::FormatMetadata" = type { ptr }
%"class.std::vector" = type { %"struct.std::_Vector_base" }
%"struct.std::_Vector_base" = type { %"struct.std::_Vector_base<std::pair<std::__cxx11::basic_string<char>, std::__cxx11::basic_string<char>>, std::allocator<std::pair<std::__cxx11::basic_string<char>, std::__cxx11::basic_string<char>>>>::_Vector_impl" }
%"struct.std::_Vector_base<std::pair<std::__cxx11::basic_string<char>, std::__cxx11::basic_string<char>>, std::allocator<std::pair<std::__cxx11::basic_string<char>, std::__cxx11::basic_string<char>>>>::_Vector_impl" = type { %"struct.std::_Vector_base<std::pair<std::__cxx11::basic_string<char>, std::__cxx11::basic_string<char>>, std::allocator<std::pair<std::__cxx11::basic_string<char>, std::__cxx11::basic_string<char>>>>::_Vector_impl_data" }
%"struct.std::_Vector_base<std::pair<std::__cxx11::basic_string<char>, std::__cxx11::basic_string<char>>, std::allocator<std::pair<std::__cxx11::basic_string<char>, std::__cxx11::basic_string<char>>>>::_Vector_impl_data" = type { ptr, ptr, ptr }
%"class.std::vector.6" = type { %"struct.std::_Vector_base.7" }
%"struct.std::_Vector_base.7" = type { %"struct.std::_Vector_base<OpenColorIO_v2_5dev::FormatMetadataImpl, std::allocator<OpenColorIO_v2_5dev::FormatMetadataImpl>>::_Vector_impl" }
%"struct.std::_Vector_base<OpenColorIO_v2_5dev::FormatMetadataImpl, std::allocator<OpenColorIO_v2_5dev::FormatMetadataImpl>>::_Vector_impl" = type { %"struct.std::_Vector_base<OpenColorIO_v2_5dev::FormatMetadataImpl, std::allocator<OpenColorIO_v2_5dev::FormatMetadataImpl>>::_Vector_impl_data" }
%"struct.std::_Vector_base<OpenColorIO_v2_5dev::FormatMetadataImpl, std::allocator<OpenColorIO_v2_5dev::FormatMetadataImpl>>::_Vector_impl_data" = type { ptr, ptr, ptr }

; Function Attrs: mustprogress nounwind uwtable
define linkonce_odr hidden noundef i64 @_ZNSt11char_traitsIcE6lengthEPKc(ptr noundef %0) #7 comdat align 2 {
  %2 = alloca ptr, align 8
  store ptr %0, ptr %2, align 8, !tbaa !51
  %3 = load ptr, ptr %2, align 8, !tbaa !51
  %4 = call i64 @strlen(ptr noundef %3) #3
  ret i64 %4
}

; Function Attrs: mustprogress nounwind uwtable
define available_externally noundef i64 @_ZNKSt7__cxx1112basic_stringIcSt11char_traitsIcESaIcEE4sizeEv(ptr noundef nonnull align 8 dereferenceable(32) %0) #7 align 2 {
  %2 = alloca ptr, align 8
  store ptr %0, ptr %2, align 8, !tbaa !64
  %3 = load ptr, ptr %2, align 8
  %4 = getelementptr inbounds nuw %"class.std::__cxx11::basic_string", ptr %3, i32 0, i32 1
  %5 = load i64, ptr %4, align 8, !tbaa !116
  ret i64 %5
}

; Function Attrs: mustprogress uwtable
define available_externally noundef nonnull align 8 dereferenceable(32) ptr @_ZNSt7__cxx1112basic_stringIcSt11char_traitsIcESaIcEE6assignEPKc(ptr noundef nonnull align 8 dereferenceable(32) %0, ptr noundef %1) #4 align 2 {
  %3 = alloca ptr, align 8
  %4 = alloca ptr, align 8
  store ptr %0, ptr %3, align 8, !tbaa !64
  store ptr %1, ptr %4, align 8, !tbaa !51
  %5 = load ptr, ptr %3, align 8
  %6 = call noundef i64 @_ZNKSt7__cxx1112basic_stringIcSt11char_traitsIcESaIcEE4sizeEv(ptr noundef nonnull align 8 dereferenceable(32) %5) #3
  %7 = load ptr, ptr %4, align 8, !tbaa !51
  %8 = load ptr, ptr %4, align 8, !tbaa !51
  %9 = call noundef i64 @_ZNSt11char_traitsIcE6lengthEPKc(ptr noundef %8)
  %10 = call noundef nonnull align 8 dereferenceable(32) ptr @_ZNSt7__cxx1112basic_stringIcSt11char_traitsIcESaIcEE10_M_replaceEmmPKcm(ptr noundef nonnull align 8 dereferenceable(32) %5, i64 noundef 0, i64 noundef %6, ptr noundef %7, i64 noundef %9)
  ret ptr %10
}

; Function Attrs: mustprogress uwtable
define available_externally noundef nonnull align 8 dereferenceable(32) ptr @_ZNSt7__cxx1112basic_stringIcSt11char_traitsIcESaIcEEaSEPKc(ptr noundef nonnull align 8 dereferenceable(32) %0, ptr noundef %1) #4 align 2 {
  %3 = alloca ptr, align 8
  %4 = alloca ptr, align 8
  store ptr %0, ptr %3, align 8, !tbaa !64
  store ptr %1, ptr %4, align 8, !tbaa !51
  %5 = load ptr, ptr %3, align 8
  %6 = load ptr, ptr %4, align 8, !tbaa !51
  %7 = call noundef nonnull align 8 dereferenceable(32) ptr @_ZNSt7__cxx1112basic_stringIcSt11char_traitsIcESaIcEE6assignEPKc(ptr noundef nonnull align 8 dereferenceable(32) %5, ptr noundef %6)
  ret ptr %7
}

; Function Attrs: mustprogress nounwind uwtable
define linkonce_odr hidden noundef ptr @_ZN19OpenColorIO_v2_5dev5Baker7getImplEv(ptr noundef nonnull align 8 dereferenceable(8) %0) #7 comdat align 2 {
  %2 = alloca ptr, align 8
  store ptr %0, ptr %2, align 8, !tbaa !3
  %3 = load ptr, ptr %2, align 8
  %4 = getelementptr inbounds nuw %"class.OpenColorIO_v2_5dev::Baker", ptr %3, i32 0, i32 0
  %5 = load ptr, ptr %4, align 8, !tbaa !11
  ret ptr %5
}

; Function Attrs: mustprogress uwtable
define void @_ZN19OpenColorIO_v2_5dev5Baker8setLooksEPKc(ptr noundef nonnull align 8 dereferenceable(8) %0, ptr noundef %1) #4 align 2 {
  %3 = alloca ptr, align 8
  %4 = alloca ptr, align 8
  store ptr %0, ptr %3, align 8, !tbaa !3
  store ptr %1, ptr %4, align 8, !tbaa !51
  %5 = load ptr, ptr %3, align 8
  %6 = load ptr, ptr %4, align 8, !tbaa !51
  %7 = call noundef ptr @_ZN19OpenColorIO_v2_5dev5Baker7getImplEv(ptr noundef nonnull align 8 dereferenceable(8) %5)
  %8 = getelementptr inbounds nuw %"class.OpenColorIO_v2_5dev::Baker::Impl", ptr %7, i32 0, i32 5
  %9 = call noundef nonnull align 8 dereferenceable(32) ptr @_ZNSt7__cxx1112basic_stringIcSt11char_traitsIcESaIcEEaSEPKc(ptr noundef nonnull align 8 dereferenceable(32) %8, ptr noundef %6)
  ret void
}